target datalayout = "e-m:e-p270:32:32-p271:32:32-p272:64:64-i64:64-i128:128-f80:128-n8:16:32:64-S128"
target triple = "x86_64-pc-linux-gnu"

%struct.JsonLexContext = type { ptr, i64, i32, ptr, ptr, ptr, i8, i32, i32, i32, i32, ptr, ptr, ptr, i8, ptr, ptr }
%struct.FunctionCallInfoBaseData = type { ptr, ptr, ptr, i32, i8, i16, [0 x %struct.NullableDatum] }
%struct.NullableDatum = type { i64, i8 }

@.str.1 = private unnamed_addr constant [7 x i8] c"json.c\00", align 1
@.str.19 = private unnamed_addr constant [5 x i8] c"null\00", align 1
@.str.22 = private unnamed_addr constant [7 x i8] c"object\00", align 1
@.str.23 = private unnamed_addr constant [6 x i8] c"array\00", align 1
@.str.24 = private unnamed_addr constant [7 x i8] c"string\00", align 1
@.str.25 = private unnamed_addr constant [7 x i8] c"number\00", align 1
@.str.26 = private unnamed_addr constant [8 x i8] c"boolean\00", align 1
@.str.27 = private unnamed_addr constant [26 x i8] c"unexpected json token: %d\00", align 1
@__func__.json_typeof = private unnamed_addr constant [12 x i8] c"json_typeof\00", align 1

; Function Attrs: inlinehint nounwind uwtable
define internal i64 @PointerGetDatum(ptr noundef %0) #2 {
  %2 = alloca ptr, align 8
  store ptr %0, ptr %2, align 8
  %3 = load ptr, ptr %2, align 8
  %4 = ptrtoint ptr %3 to i64
  ret i64 %4
}

; Function Attrs: inlinehint nounwind uwtable
define internal ptr @DatumGetPointer(i64 noundef %0) #2 {
  %2 = alloca i64, align 8
  store i64 %0, ptr %2, align 8
  %3 = load i64, ptr %2, align 8
  %4 = inttoptr i64 %3 to ptr
  ret ptr %4
}

; Function Attrs: nounwind uwtable
define dso_local i64 @json_typeof(ptr noundef %0) #0 {
  %2 = alloca ptr, align 8
  %3 = alloca ptr, align 8
  %4 = alloca %struct.JsonLexContext, align 8
  %5 = alloca ptr, align 8
  %6 = alloca i32, align 4
  store ptr %0, ptr %2, align 8
  call void @llvm.lifetime.start.p0(i64 8, ptr %3) #14
  %7 = load ptr, ptr %2, align 8
  %8 = getelementptr inbounds nuw %struct.FunctionCallInfoBaseData, ptr %7, i32 0, i32 6
  %9 = getelementptr inbounds [0 x %struct.NullableDatum], ptr %8, i64 0, i64 0
  %10 = getelementptr inbounds nuw %struct.NullableDatum, ptr %9, i32 0, i32 0
  %11 = load i64, ptr %10, align 8
  %12 = call ptr @DatumGetPointer(i64 noundef %11)
  %13 = call ptr @pg_detoast_datum_packed(ptr noundef %12)
  store ptr %13, ptr %3, align 8
  call void @llvm.lifetime.start.p0(i64 120, ptr %4) #14
  call void @llvm.lifetime.start.p0(i64 8, ptr %5) #14
  call void @llvm.lifetime.start.p0(i64 4, ptr %6) #14
  %14 = load ptr, ptr %3, align 8
  %15 = call ptr @makeJsonLexContext(ptr noundef %4, ptr noundef %14, i1 noundef zeroext false)
  %16 = call i32 @json_lex(ptr noundef %4)
  store i32 %16, ptr %6, align 4
  %17 = load i32, ptr %6, align 4
  %18 = icmp ne i32 %17, 0
  br i1 %18, label %19, label %21

19:                                               ; preds = %1
  %20 = load i32, ptr %6, align 4
  call void @json_errsave_error(i32 noundef %20, ptr noundef %4, ptr noundef null)
  br label %21

21:                                               ; preds = %19, %1
  %22 = getelementptr inbounds nuw %struct.JsonLexContext, ptr %4, i32 0, i32 7
  %23 = load i32, ptr %22, align 4
  switch i32 %23, label %30 [
    i32 3, label %24
    i32 5, label %25
    i32 1, label %26
    i32 2, label %27
    i32 9, label %28
    i32 10, label %28
    i32 11, label %29
  ]

24:                                               ; preds = %21
  store ptr @.str.22, ptr %5, align 8
  br label %43

25:                                               ; preds = %21
  store ptr @.str.23, ptr %5, align 8
  br label %43

26:                                               ; preds = %21
  store ptr @.str.24, ptr %5, align 8
  br label %43

27:                                               ; preds = %21
  store ptr @.str.25, ptr %5, align 8
  br label %43

28:                                               ; preds = %21, %21
  store ptr @.str.26, ptr %5, align 8
  br label %43

29:                                               ; preds = %21
  store ptr @.str.19, ptr %5, align 8
  br label %43

30:                                               ; preds = %21
  br label %31

31:                                               ; preds = %30
  br i1 true, label %32, label %34

32:                                               ; preds = %31
  %33 = call zeroext i1 @errstart_cold(i32 noundef 21, ptr noundef null) #15
  br i1 %33, label %36, label %40

34:                                               ; preds = %31
  %35 = call zeroext i1 @errstart(i32 noundef 21, ptr noundef null)
  br i1 %35, label %36, label %40

36:                                               ; preds = %34, %32
  %37 = getelementptr inbounds nuw %struct.JsonLexContext, ptr %4, i32 0, i32 7
  %38 = load i32, ptr %37, align 4
  %39 = call i32 (ptr, ...) @errmsg_internal(ptr noundef @.str.27, i32 noundef %38)
  call void @errfinish(ptr noundef @.str.1, i32 noundef 1909, ptr noundef @__func__.json_typeof)
  br label %40

40:                                               ; preds = %36, %34, %32
  unreachable

41:                                               ; No predecessors!
  br label %42

42:                                               ; preds = %41
  br label %43

43:                                               ; preds = %42, %29, %28, %27, %26, %25, %24
  %44 = load ptr, ptr %5, align 8
  %45 = call ptr @cstring_to_text(ptr noundef %44)
  %46 = call i64 @PointerGetDatum(ptr noundef %45)
  call void @llvm.lifetime.end.p0(i64 4, ptr %6) #14
  call void @llvm.lifetime.end.p0(i64 8, ptr %5) #14
  call void @llvm.lifetime.end.p0(i64 120, ptr %4) #14
  call void @llvm.lifetime.end.p0(i64 8, ptr %3) #14
  ret i64 %46
}