; Function Attrs: nounwind uwtable
define dso_local i64 @json_typeof(ptr noundef readonly captures(none) %0) local_unnamed_addr #0 {
  %2 = alloca %struct.JsonLexContext, align 8
  %3 = getelementptr inbounds nuw i8, ptr %0, i64 32
  %4 = load i64, ptr %3, align 8
  %5 = inttoptr i64 %4 to ptr
  %6 = tail call ptr @pg_detoast_datum_packed(ptr noundef %5) #10
  call void @llvm.lifetime.start.p0(i64 120, ptr nonnull %2) #10
  %7 = call ptr @makeJsonLexContext(ptr noundef nonnull %2, ptr noundef %6, i1 noundef zeroext false) #10
  %8 = call i32 @json_lex(ptr noundef nonnull %2) #10
  %.not = icmp eq i32 %8, 0
  br i1 %.not, label %10, label %9

9:                                                ; preds = %1
  call void @json_errsave_error(i32 noundef %8, ptr noundef nonnull %2, ptr noundef null) #10
  br label %10

10:                                               ; preds = %9, %1
  %11 = getelementptr inbounds nuw i8, ptr %2, i64 52
  %12 = load i32, ptr %11, align 4
  %switch.tableidx = add i32 %12, -1
  %13 = icmp ult i32 %switch.tableidx, 11
  br i1 %13, label %switch.hole_check, label %14

14:                                               ; preds = %switch.hole_check, %10
  %15 = call zeroext i1 @errstart_cold(i32 noundef 21, ptr noundef null) #11
  call void @llvm.assume(i1 %15)
  %16 = load i32, ptr %11, align 4
  %17 = call i32 (ptr, ...) @errmsg_internal(ptr noundef nonnull @.str.27, i32 noundef %16) #10
  call void @errfinish(ptr noundef nonnull @.str.1, i32 noundef 1909, ptr noundef nonnull @__func__.json_typeof) #10
  unreachable

switch.hole_check:                                ; preds = %10
  %switch.maskindex = trunc nuw i32 %switch.tableidx to i16
  %switch.shifted = lshr i16 1815, %switch.maskindex
  %switch.lobit = trunc i16 %switch.shifted to i1
  br i1 %switch.lobit, label %switch.lookup, label %14

switch.lookup:                                    ; preds = %switch.hole_check
  %18 = zext nneg i32 %switch.tableidx to i64
  %switch.gep = getelementptr inbounds nuw [11 x ptr], ptr @switch.table.json_typeof, i64 0, i64 %18
  %switch.load = load ptr, ptr %switch.gep, align 8
  %19 = call ptr @cstring_to_text(ptr noundef nonnull %switch.load) #10
  %20 = ptrtoint ptr %19 to i64
  call void @llvm.lifetime.end.p0(i64 120, ptr nonnull %2) #10
  ret i64 %20
}